(lp0
(I99
I172
tp1
a(I141
I174
tp2
a(I79
I102
tp3
a(I49
I189
tp4
a(I40
I122
tp5
a(I114
I152
tp6
a(I140
I191
tp7
a(I94
I99
tp8
a(I61
I58
tp9
a(I172
I130
tp10
a(I11
I57
tp11
a(I189
I43
tp12
a(I93
I126
tp13
a(I88
I17
tp14
a(I197
I115
tp15
a(I64
I71
tp16
a(I90
I103
tp17
a(I26
I131
tp18
a(I87
I21
tp19
a(I159
I113
tp20
a(I40
I139
tp21
a(I62
I136
tp22
a(I44
I104
tp23
a(I140
I89
tp24
a(I165
I20
tp25
a(I175
I156
tp26
a(I126
I177
tp27
a(I14
I140
tp28
a(I147
I188
tp29
a(I135
I184
tp30
a(I131
I54
tp31
a(I56
I47
tp32
a(I5
I167
tp33
a(I2
I161
tp34
a(I89
I137
tp35
a(I192
I118
tp36
a(I159
I174
tp37
a(I62
I147
tp38
a(I197
I190
tp39
a(I156
I19
tp40
a(I4
I191
tp41
a(I131
I71
tp42
a(I7
I95
tp43
a(I36
I147
tp44
a(I63
I51
tp45
a(I93
I54
tp46
a(I28
I139
tp47
a(I80
I168
tp48
a(I148
I92
tp49
a(I185
I142
tp50
a.